; Function Attrs: mustprogress nofree norecurse nosync nounwind memory(argmem: readwrite) uwtable
define dso_local void @_ZNK14btCapsuleShape49batchedUnitVectorGetSupportingVertexWithoutMarginEPK9btVector3PS0_i(ptr noundef nonnull readonly align 8 captures(none) dereferenceable(76) %0, ptr noundef readonly captures(none) %1, ptr noundef writeonly captures(none) %2, i32 noundef %3) unnamed_addr #4 align 2 {
  %5 = alloca %class.btVector3, align 4
  %6 = alloca %class.btVector3, align 4
  %7 = icmp sgt i32 %3, 0
  br i1 %7, label %.lr.ph, label %._crit_edge

.lr.ph:                                           ; preds = %4
  %8 = getelementptr inbounds nuw i8, ptr %5, i64 4
  %9 = getelementptr inbounds nuw i8, ptr %5, i64 8
  %10 = getelementptr inbounds nuw i8, ptr %5, i64 12
  %11 = getelementptr inbounds nuw i8, ptr %0, i64 48
  %12 = getelementptr inbounds nuw i8, ptr %0, i64 72
  %13 = getelementptr inbounds nuw i8, ptr %6, i64 4
  %14 = getelementptr inbounds nuw i8, ptr %6, i64 8
  %15 = getelementptr inbounds nuw i8, ptr %6, i64 12
  %wide.trip.count = zext nneg i32 %3 to i64
  br label %16

._crit_edge:                                      ; preds = %47, %4
  ret void

16:                                               ; preds = %.lr.ph, %47
  %indvars.iv = phi i64 [ 0, %.lr.ph ], [ %indvars.iv.next, %47 ]
  %17 = getelementptr inbounds nuw %class.btVector3, ptr %1, i64 %indvars.iv
  call void @llvm.lifetime.start.p0(i64 16, ptr nonnull %5) #16
  call void @llvm.memset.p0.i64(ptr noundef nonnull align 4 dereferenceable(16) %5, i8 0, i64 16, i1 false)
  %18 = load i32, ptr %12, align 8, !tbaa !17
  %19 = sext i32 %18 to i64
  %20 = getelementptr inbounds float, ptr %11, i64 %19
  %21 = load float, ptr %20, align 4, !tbaa !19
  %22 = getelementptr inbounds float, ptr %5, i64 %19
  store float %21, ptr %22, align 4, !tbaa !19
  %.sroa.0.0.copyload = load float, ptr %5, align 4
  %.sroa.8.0.copyload = load float, ptr %8, align 4
  %.sroa.10.0.copyload = load float, ptr %9, align 4
  %23 = load float, ptr %17, align 4, !tbaa !19
  %24 = getelementptr inbounds nuw i8, ptr %17, i64 4
  %25 = load float, ptr %24, align 4, !tbaa !19
  %26 = fmul float %.sroa.8.0.copyload, %25
  %27 = tail call float @llvm.fmuladd.f32(float %23, float %.sroa.0.0.copyload, float %26)
  %28 = getelementptr inbounds nuw i8, ptr %17, i64 8
  %29 = load float, ptr %28, align 4, !tbaa !19
  %30 = tail call noundef float @llvm.fmuladd.f32(float %29, float %.sroa.10.0.copyload, float %27)
  %31 = fcmp ogt float %30, 0xC3ABC16D60000000
  br i1 %31, label %32, label %34

32:                                               ; preds = %16
  %.sroa.12.0.copyload = load float, ptr %10, align 4, !tbaa !20
  %33 = getelementptr inbounds nuw %class.btVector3, ptr %2, i64 %indvars.iv
  store float %.sroa.0.0.copyload, ptr %33, align 4
  %.sroa.8.0..sroa_idx28 = getelementptr inbounds nuw i8, ptr %33, i64 4
  store float %.sroa.8.0.copyload, ptr %.sroa.8.0..sroa_idx28, align 4
  %.sroa.10.0..sroa_idx35 = getelementptr inbounds nuw i8, ptr %33, i64 8
  store float %.sroa.10.0.copyload, ptr %.sroa.10.0..sroa_idx35, align 4
  %.sroa.12.0..sroa_idx42 = getelementptr inbounds nuw i8, ptr %33, i64 12
  store float %.sroa.12.0.copyload, ptr %.sroa.12.0..sroa_idx42, align 4, !tbaa !20
  %.pre = load i32, ptr %12, align 8, !tbaa !17
  %.phi.trans.insert = sext i32 %.pre to i64
  %.phi.trans.insert50 = getelementptr inbounds float, ptr %11, i64 %.phi.trans.insert
  %.pre51 = load float, ptr %.phi.trans.insert50, align 4, !tbaa !19
  %.pre52 = load float, ptr %17, align 4, !tbaa !19
  %.pre53 = load float, ptr %24, align 4, !tbaa !19
  %.pre54 = load float, ptr %28, align 4, !tbaa !19
  br label %34

34:                                               ; preds = %32, %16
  %.pre-phi = phi i64 [ %.phi.trans.insert, %32 ], [ %19, %16 ]
  %35 = phi float [ %.pre54, %32 ], [ %29, %16 ]
  %36 = phi float [ %.pre53, %32 ], [ %25, %16 ]
  %37 = phi float [ %.pre52, %32 ], [ %23, %16 ]
  %38 = phi float [ %.pre51, %32 ], [ %21, %16 ]
  %.017 = phi float [ %30, %32 ], [ 0xC3ABC16D60000000, %16 ]
  call void @llvm.lifetime.end.p0(i64 16, ptr nonnull %5) #16
  call void @llvm.lifetime.start.p0(i64 16, ptr nonnull %6) #16
  %39 = fneg float %38
  %40 = getelementptr inbounds float, ptr %6, i64 %.pre-phi
  call void @llvm.memset.p0.i64(ptr noundef nonnull align 4 dereferenceable(16) %6, i8 0, i64 16, i1 false)
  store float %39, ptr %40, align 4, !tbaa !19
  %.sroa.0.0.copyload26 = load float, ptr %6, align 4
  %.sroa.8.0.copyload31 = load float, ptr %13, align 4
  %.sroa.10.0.copyload38 = load float, ptr %14, align 4
  %41 = fmul float %.sroa.8.0.copyload31, %36
  %42 = tail call float @llvm.fmuladd.f32(float %37, float %.sroa.0.0.copyload26, float %41)
  %43 = tail call noundef float @llvm.fmuladd.f32(float %35, float %.sroa.10.0.copyload38, float %42)
  %44 = fcmp ogt float %43, %.017
  br i1 %44, label %45, label %47

45:                                               ; preds = %34
  %.sroa.12.0.copyload45 = load float, ptr %15, align 4, !tbaa !20
  %46 = getelementptr inbounds nuw %class.btVector3, ptr %2, i64 %indvars.iv
  store float %.sroa.0.0.copyload26, ptr %46, align 4
  %.sroa.8.0..sroa_idx32 = getelementptr inbounds nuw i8, ptr %46, i64 4
  store float %.sroa.8.0.copyload31, ptr %.sroa.8.0..sroa_idx32, align 4
  %.sroa.10.0..sroa_idx39 = getelementptr inbounds nuw i8, ptr %46, i64 8
  store float %.sroa.10.0.copyload38, ptr %.sroa.10.0..sroa_idx39, align 4
  %.sroa.12.0..sroa_idx46 = getelementptr inbounds nuw i8, ptr %46, i64 12
  store float %.sroa.12.0.copyload45, ptr %.sroa.12.0..sroa_idx46, align 4, !tbaa !20
  br label %47

47:                                               ; preds = %45, %34
  call void @llvm.lifetime.end.p0(i64 16, ptr nonnull %6) #16
  %indvars.iv.next = add nuw nsw i64 %indvars.iv, 1
  %exitcond.not = icmp eq i64 %indvars.iv.next, %wide.trip.count
  br i1 %exitcond.not, label %._crit_edge, label %16, !llvm.loop !21
}